(dp0
Vengine
p1
Vpdflatex
p2
sVpackages
p3
c__builtin__
set
p4
((lp5
Vamsmath
p6
aVlatexsym
p7
aVtimes
p8
aVtype1cm
p9
aVamssymb
p10
aVamsthm
p11
aVepstopdf
p12
aVbabel
p13
aVcalc
p14
aVinputenc
p15
aVbeamerposter
p16
atp17
Rp18
sVfiles_with_guttermarks
p19
g4
((lp20
S'tess2015_solarnmf.tex'
p21
aV/Users/willbarnes/Documents/Rice/Research/solarnmf/poster/./tess2015_solarnmf.tex
p22
aV/Users/willbarnes/Library/texmf/tex/latex/beamerthemeI6dv.sty
p23
atp24
Rp25
sVsynctex
p26
I01
s.